(dp1
S'branching'
p2
I32
sS'cb_index'
p3
F0.5
sS'centers_init'
p4
S'default'
p5
sS'log_level'
p6
S'info'
p7
sS'algorithm'
p8
S'composite'
p9
sS'build_weight'
p10
F0.0099999997764825821
sS'leaf_max_size'
p11
I4
sS'eps'
p12
F0
sS'trees'
p13
I1
sS'speedup'
p14
F0
sS'memory_weight'
p15
F0
sS'target_precision'
p16
F0.94999998807907104
sS'sample_fraction'
p17
F0.10000000149011612
sS'iterations'
p18
I16
sS'random_seed'
p19
I882077804
sS'checks'
p20
I32
s.